target datalayout = "e-m:e-p270:32:32-p271:32:32-p272:64:64-i64:64-i128:128-f80:128-n8:16:32:64-S128"
target triple = "x86_64-unknown-linux-gnu"

%"class.Imath_3_2::Vec3" = type { float, float, float }
%"class.std::mutex" = type { %"class.std::__mutex_base" }
%"class.std::__mutex_base" = type { %union.pthread_mutex_t }
%union.pthread_mutex_t = type { %struct.__pthread_mutex_s }
%struct.__pthread_mutex_s = type { i32, i32, i32, i32, i32, i16, i16, %struct.__pthread_internal_list }
%struct.__pthread_internal_list = type { ptr, ptr }
%"struct.Imf_3_2::Rgba" = type { %"class.Imath_3_2::half", %"class.Imath_3_2::half", %"class.Imath_3_2::half", %"class.Imath_3_2::half" }
%"class.Imath_3_2::half" = type { i16 }
%"class.Imf_3_2::RgbaInputFile::FromYca" = type { %"class.std::mutex", ptr, i8, i32, i32, i32, i32, i32, i32, i32, %"class.Imath_3_2::Vec3", ptr, [29 x ptr], [3 x ptr], ptr, ptr, i64, i64 }
%union.imath_half_uif = type { i32 }

; Function Attrs: noreturn nounwind uwtable
define linkonce_odr hidden void @__clang_call_terminate(ptr noundef %0) #10 comdat {
  %2 = call ptr @__cxa_begin_catch(ptr %0) #3
  call void @_ZSt9terminatev() #16
  unreachable
}

; Function Attrs: mustprogress nounwind uwtable
define internal noundef zeroext i16 @_ZL19imath_float_to_halff(float noundef %f) #5 {
entry:
  %retval = alloca i16, align 2
  %f.addr = alloca float, align 4
  %v = alloca %union.imath_half_uif, align 4
  %ret = alloca i16, align 2
  %e = alloca i32, align 4
  %m = alloca i32, align 4
  %ui = alloca i32, align 4
  %r = alloca i32, align 4
  %shift = alloca i32, align 4
  store float %f, ptr %f.addr, align 4
  %0 = load float, ptr %f.addr, align 4
  store float %0, ptr %v, align 4
  %1 = load i32, ptr %v, align 4
  %and = and i32 %1, 2147483647
  store i32 %and, ptr %ui, align 4
  %2 = load i32, ptr %v, align 4
  %shr = lshr i32 %2, 16
  %and1 = and i32 %shr, 32768
  %conv = trunc i32 %and1 to i16
  store i16 %conv, ptr %ret, align 2
  %3 = load i32, ptr %ui, align 4
  %cmp = icmp uge i32 %3, 947912704
  br i1 %cmp, label %if.then, label %if.end37

if.then:                                          ; preds = %entry
  %4 = load i32, ptr %ui, align 4
  %cmp2 = icmp uge i32 %4, 2139095040
  br i1 %cmp2, label %if.then4, label %if.end20

if.then4:                                         ; preds = %if.then
  %5 = load i16, ptr %ret, align 2
  %conv5 = zext i16 %5 to i32
  %or = or i32 %conv5, 31744
  %conv6 = trunc i32 %or to i16
  store i16 %conv6, ptr %ret, align 2
  %6 = load i32, ptr %ui, align 4
  %cmp7 = icmp eq i32 %6, 2139095040
  br i1 %cmp7, label %if.then8, label %if.end

if.then8:                                         ; preds = %if.then4
  %7 = load i16, ptr %ret, align 2
  store i16 %7, ptr %retval, align 2
  br label %return

if.end:                                           ; preds = %if.then4
  %8 = load i32, ptr %ui, align 4
  %and9 = and i32 %8, 8388607
  %shr10 = lshr i32 %and9, 13
  store i32 %shr10, ptr %m, align 4
  %9 = load i16, ptr %ret, align 2
  %conv11 = zext i16 %9 to i32
  %10 = load i32, ptr %m, align 4
  %conv12 = trunc i32 %10 to i16
  %conv13 = zext i16 %conv12 to i32
  %or14 = or i32 %conv11, %conv13
  %11 = load i32, ptr %m, align 4
  %cmp15 = icmp eq i32 %11, 0
  %conv16 = zext i1 %cmp15 to i16
  %conv17 = zext i16 %conv16 to i32
  %or18 = or i32 %or14, %conv17
  %conv19 = trunc i32 %or18 to i16
  store i16 %conv19, ptr %retval, align 2
  br label %return

if.end20:                                         ; preds = %if.then
  %12 = load i32, ptr %ui, align 4
  %cmp21 = icmp ugt i32 %12, 1199566847
  br i1 %cmp21, label %if.then23, label %if.end27

if.then23:                                        ; preds = %if.end20
  %13 = load i16, ptr %ret, align 2
  %conv24 = zext i16 %13 to i32
  %or25 = or i32 %conv24, 31744
  %conv26 = trunc i32 %or25 to i16
  store i16 %conv26, ptr %retval, align 2
  br label %return

if.end27:                                         ; preds = %if.end20
  %14 = load i32, ptr %ui, align 4
  %sub = sub i32 %14, 939524096
  store i32 %sub, ptr %ui, align 4
  %15 = load i32, ptr %ui, align 4
  %add = add i32 %15, 4095
  %16 = load i32, ptr %ui, align 4
  %shr28 = lshr i32 %16, 13
  %and29 = and i32 %shr28, 1
  %add30 = add i32 %add, %and29
  %shr31 = lshr i32 %add30, 13
  store i32 %shr31, ptr %ui, align 4
  %17 = load i16, ptr %ret, align 2
  %conv32 = zext i16 %17 to i32
  %18 = load i32, ptr %ui, align 4
  %conv33 = trunc i32 %18 to i16
  %conv34 = zext i16 %conv33 to i32
  %or35 = or i32 %conv32, %conv34
  %conv36 = trunc i32 %or35 to i16
  store i16 %conv36, ptr %retval, align 2
  br label %return

if.end37:                                         ; preds = %entry
  %19 = load i32, ptr %ui, align 4
  %cmp38 = icmp ult i32 %19, 855638017
  br i1 %cmp38, label %if.then39, label %if.end40

if.then39:                                        ; preds = %if.end37
  %20 = load i16, ptr %ret, align 2
  store i16 %20, ptr %retval, align 2
  br label %return

if.end40:                                         ; preds = %if.end37
  %21 = load i32, ptr %ui, align 4
  %shr41 = lshr i32 %21, 23
  store i32 %shr41, ptr %e, align 4
  %22 = load i32, ptr %e, align 4
  %sub42 = sub i32 126, %22
  store i32 %sub42, ptr %shift, align 4
  %23 = load i32, ptr %ui, align 4
  %and43 = and i32 %23, 8388607
  %or44 = or i32 8388608, %and43
  store i32 %or44, ptr %m, align 4
  %24 = load i32, ptr %m, align 4
  %25 = load i32, ptr %shift, align 4
  %sub45 = sub i32 32, %25
  %shl = shl i32 %24, %sub45
  store i32 %shl, ptr %r, align 4
  %26 = load i32, ptr %m, align 4
  %27 = load i32, ptr %shift, align 4
  %shr46 = lshr i32 %26, %27
  %28 = load i16, ptr %ret, align 2
  %conv47 = zext i16 %28 to i32
  %or48 = or i32 %conv47, %shr46
  %conv49 = trunc i32 %or48 to i16
  store i16 %conv49, ptr %ret, align 2
  %29 = load i32, ptr %r, align 4
  %cmp50 = icmp ugt i32 %29, -2147483648
  br i1 %cmp50, label %if.then55, label %lor.lhs.false

lor.lhs.false:                                    ; preds = %if.end40
  %30 = load i32, ptr %r, align 4
  %cmp51 = icmp eq i32 %30, -2147483648
  br i1 %cmp51, label %land.lhs.true, label %if.end56

land.lhs.true:                                    ; preds = %lor.lhs.false
  %31 = load i16, ptr %ret, align 2
  %conv52 = zext i16 %31 to i32
  %and53 = and i32 %conv52, 1
  %cmp54 = icmp ne i32 %and53, 0
  br i1 %cmp54, label %if.then55, label %if.end56

if.then55:                                        ; preds = %land.lhs.true, %if.end40
  %32 = load i16, ptr %ret, align 2
  %inc = add i16 %32, 1
  store i16 %inc, ptr %ret, align 2
  br label %if.end56

if.end56:                                         ; preds = %if.then55, %land.lhs.true, %lor.lhs.false
  %33 = load i16, ptr %ret, align 2
  store i16 %33, ptr %retval, align 2
  br label %return

return:                                           ; preds = %if.end56, %if.then39, %if.end27, %if.then23, %if.end, %if.then8
  %34 = load i16, ptr %retval, align 2
  ret i16 %34
}

; Function Attrs: mustprogress nounwind uwtable
define linkonce_odr hidden void @_ZN9Imath_3_24halfC2Ef(ptr noundef nonnull align 2 dereferenceable(2) %this, float noundef %f) unnamed_addr #5 comdat align 2 personality ptr @__gxx_personality_v0 {
entry:
  %this.addr = alloca ptr, align 8
  %f.addr = alloca float, align 4
  store ptr %this, ptr %this.addr, align 8
  store float %f, ptr %f.addr, align 4
  %this1 = load ptr, ptr %this.addr, align 8
  %_h = getelementptr inbounds %"class.Imath_3_2::half", ptr %this1, i32 0, i32 0
  %0 = load float, ptr %f.addr, align 4
  %call = invoke noundef zeroext i16 @_ZL19imath_float_to_halff(float noundef %0)
          to label %invoke.cont unwind label %terminate.lpad

invoke.cont:                                      ; preds = %entry
  store i16 %call, ptr %_h, align 2
  ret void

terminate.lpad:                                   ; preds = %entry
  %1 = landingpad { ptr, i32 }
          catch ptr null
  %2 = extractvalue { ptr, i32 } %1, 0
  call void @__clang_call_terminate(ptr %2) #16
  unreachable
}

; Function Attrs: mustprogress nounwind uwtable
define hidden void @_ZN7Imf_3_213RgbaInputFile7FromYca9padTmpBufEv(ptr noundef nonnull align 8 dereferenceable(392) %this) #5 align 2 {
entry:
  %this.addr = alloca ptr, align 8
  %i = alloca i32, align 4
  store ptr %this, ptr %this.addr, align 8
  %this1 = load ptr, ptr %this.addr, align 8
  store i32 0, ptr %i, align 4
  br label %for.cond

for.cond:                                         ; preds = %for.inc, %entry
  %0 = load i32, ptr %i, align 4
  %cmp = icmp slt i32 %0, 13
  br i1 %cmp, label %for.body, label %for.end

for.body:                                         ; preds = %for.cond
  %_tmpBuf = getelementptr inbounds %"class.Imf_3_2::RgbaInputFile::FromYca", ptr %this1, i32 0, i32 14
  %1 = load ptr, ptr %_tmpBuf, align 8
  %arrayidx = getelementptr inbounds %"struct.Imf_3_2::Rgba", ptr %1, i64 13
  %_tmpBuf2 = getelementptr inbounds %"class.Imf_3_2::RgbaInputFile::FromYca", ptr %this1, i32 0, i32 14
  %2 = load ptr, ptr %_tmpBuf2, align 8
  %3 = load i32, ptr %i, align 4
  %idxprom = sext i32 %3 to i64
  %arrayidx3 = getelementptr inbounds %"struct.Imf_3_2::Rgba", ptr %2, i64 %idxprom
  call void @llvm.memcpy.p0.p0.i64(ptr align 2 %arrayidx3, ptr align 2 %arrayidx, i64 8, i1 false)
  %_tmpBuf4 = getelementptr inbounds %"class.Imf_3_2::RgbaInputFile::FromYca", ptr %this1, i32 0, i32 14
  %4 = load ptr, ptr %_tmpBuf4, align 8
  %_width = getelementptr inbounds %"class.Imf_3_2::RgbaInputFile::FromYca", ptr %this1, i32 0, i32 6
  %5 = load i32, ptr %_width, align 8
  %add = add nsw i32 %5, 13
  %sub = sub nsw i32 %add, 2
  %idxprom5 = sext i32 %sub to i64
  %arrayidx6 = getelementptr inbounds %"struct.Imf_3_2::Rgba", ptr %4, i64 %idxprom5
  %_tmpBuf7 = getelementptr inbounds %"class.Imf_3_2::RgbaInputFile::FromYca", ptr %this1, i32 0, i32 14
  %6 = load ptr, ptr %_tmpBuf7, align 8
  %_width8 = getelementptr inbounds %"class.Imf_3_2::RgbaInputFile::FromYca", ptr %this1, i32 0, i32 6
  %7 = load i32, ptr %_width8, align 8
  %add9 = add nsw i32 %7, 13
  %8 = load i32, ptr %i, align 4
  %add10 = add nsw i32 %add9, %8
  %idxprom11 = sext i32 %add10 to i64
  %arrayidx12 = getelementptr inbounds %"struct.Imf_3_2::Rgba", ptr %6, i64 %idxprom11
  call void @llvm.memcpy.p0.p0.i64(ptr align 2 %arrayidx12, ptr align 2 %arrayidx6, i64 8, i1 false)
  br label %for.inc

for.inc:                                          ; preds = %for.body
  %9 = load i32, ptr %i, align 4
  %inc = add nsw i32 %9, 1
  store i32 %inc, ptr %i, align 4
  br label %for.cond, !llvm.loop !30

for.end:                                          ; preds = %for.cond
  ret void
}

; Function Attrs: mustprogress nounwind uwtable
define linkonce_odr hidden noundef nonnull align 2 dereferenceable(2) ptr @_ZN9Imath_3_24halfaSEf(ptr noundef nonnull align 2 dereferenceable(2) %this, float noundef %f) #5 comdat align 2 {
entry:
  %this.addr = alloca ptr, align 8
  %f.addr = alloca float, align 4
  %ref.tmp = alloca %"class.Imath_3_2::half", align 2
  store ptr %this, ptr %this.addr, align 8
  store float %f, ptr %f.addr, align 4
  %this1 = load ptr, ptr %this.addr, align 8
  %0 = load float, ptr %f.addr, align 4
  call void @_ZN9Imath_3_24halfC2Ef(ptr noundef nonnull align 2 dereferenceable(2) %ref.tmp, float noundef %0) #3
  call void @llvm.memcpy.p0.p0.i64(ptr align 2 %this1, ptr align 2 %ref.tmp, i64 2, i1 false)
  ret ptr %this1
}

; Function Attrs: mustprogress uwtable
define hidden void @_ZN7Imf_3_213RgbaInputFile7FromYca15readYCAScanLineEiPNS_4RgbaE(ptr noundef nonnull align 8 dereferenceable(392) %this, i32 noundef %y, ptr noundef %buf) #4 align 2 {
entry:
  %this.addr = alloca ptr, align 8
  %y.addr = alloca i32, align 4
  %buf.addr = alloca ptr, align 8
  %i = alloca i32, align 4
  store ptr %this, ptr %this.addr, align 8
  store i32 %y, ptr %y.addr, align 4
  store ptr %buf, ptr %buf.addr, align 8
  %this1 = load ptr, ptr %this.addr, align 8
  %0 = load i32, ptr %y.addr, align 4
  %_yMin = getelementptr inbounds %"class.Imf_3_2::RgbaInputFile::FromYca", ptr %this1, i32 0, i32 4
  %1 = load i32, ptr %_yMin, align 8
  %cmp = icmp slt i32 %0, %1
  br i1 %cmp, label %if.then, label %if.else

if.then:                                          ; preds = %entry
  %_yMin2 = getelementptr inbounds %"class.Imf_3_2::RgbaInputFile::FromYca", ptr %this1, i32 0, i32 4
  %2 = load i32, ptr %_yMin2, align 8
  store i32 %2, ptr %y.addr, align 4
  br label %if.end6

if.else:                                          ; preds = %entry
  %3 = load i32, ptr %y.addr, align 4
  %_yMax = getelementptr inbounds %"class.Imf_3_2::RgbaInputFile::FromYca", ptr %this1, i32 0, i32 5
  %4 = load i32, ptr %_yMax, align 4
  %cmp3 = icmp sgt i32 %3, %4
  br i1 %cmp3, label %if.then4, label %if.end

if.then4:                                         ; preds = %if.else
  %_yMax5 = getelementptr inbounds %"class.Imf_3_2::RgbaInputFile::FromYca", ptr %this1, i32 0, i32 5
  %5 = load i32, ptr %_yMax5, align 4
  %sub = sub nsw i32 %5, 1
  store i32 %sub, ptr %y.addr, align 4
  br label %if.end

if.end:                                           ; preds = %if.then4, %if.else
  br label %if.end6

if.end6:                                          ; preds = %if.end, %if.then
  %_inputPart = getelementptr inbounds %"class.Imf_3_2::RgbaInputFile::FromYca", ptr %this1, i32 0, i32 1
  %6 = load ptr, ptr %_inputPart, align 8
  %7 = load i32, ptr %y.addr, align 4
  call void @_ZN7Imf_3_29InputPart10readPixelsEi(ptr noundef nonnull align 8 dereferenceable(8) %6, i32 noundef %7)
  %_readC = getelementptr inbounds %"class.Imf_3_2::RgbaInputFile::FromYca", ptr %this1, i32 0, i32 2
  %8 = load i8, ptr %_readC, align 8
  %tobool = trunc i8 %8 to i1
  br i1 %tobool, label %if.end14, label %if.then7

if.then7:                                         ; preds = %if.end6
  store i32 0, ptr %i, align 4
  br label %for.cond

for.cond:                                         ; preds = %for.inc, %if.then7
  %9 = load i32, ptr %i, align 4
  %_width = getelementptr inbounds %"class.Imf_3_2::RgbaInputFile::FromYca", ptr %this1, i32 0, i32 6
  %10 = load i32, ptr %_width, align 8
  %cmp8 = icmp slt i32 %9, %10
  br i1 %cmp8, label %for.body, label %for.end

for.body:                                         ; preds = %for.cond
  %_tmpBuf = getelementptr inbounds %"class.Imf_3_2::RgbaInputFile::FromYca", ptr %this1, i32 0, i32 14
  %11 = load ptr, ptr %_tmpBuf, align 8
  %12 = load i32, ptr %i, align 4
  %add = add nsw i32 %12, 13
  %idxprom = sext i32 %add to i64
  %arrayidx = getelementptr inbounds %"struct.Imf_3_2::Rgba", ptr %11, i64 %idxprom
  %r = getelementptr inbounds %"struct.Imf_3_2::Rgba", ptr %arrayidx, i32 0, i32 0
  %call = call noundef nonnull align 2 dereferenceable(2) ptr @_ZN9Imath_3_24halfaSEf(ptr noundef nonnull align 2 dereferenceable(2) %r, float noundef 0.000000e+00) #3
  %_tmpBuf9 = getelementptr inbounds %"class.Imf_3_2::RgbaInputFile::FromYca", ptr %this1, i32 0, i32 14
  %13 = load ptr, ptr %_tmpBuf9, align 8
  %14 = load i32, ptr %i, align 4
  %add10 = add nsw i32 %14, 13
  %idxprom11 = sext i32 %add10 to i64
  %arrayidx12 = getelementptr inbounds %"struct.Imf_3_2::Rgba", ptr %13, i64 %idxprom11
  %b = getelementptr inbounds %"struct.Imf_3_2::Rgba", ptr %arrayidx12, i32 0, i32 2
  %call13 = call noundef nonnull align 2 dereferenceable(2) ptr @_ZN9Imath_3_24halfaSEf(ptr noundef nonnull align 2 dereferenceable(2) %b, float noundef 0.000000e+00) #3
  br label %for.inc

for.inc:                                          ; preds = %for.body
  %15 = load i32, ptr %i, align 4
  %inc = add nsw i32 %15, 1
  store i32 %inc, ptr %i, align 4
  br label %for.cond, !llvm.loop !29

for.end:                                          ; preds = %for.cond
  br label %if.end14

if.end14:                                         ; preds = %for.end, %if.end6
  %16 = load i32, ptr %y.addr, align 4
  %and = and i32 %16, 1
  %tobool15 = icmp ne i32 %and, 0
  br i1 %tobool15, label %if.then16, label %if.else19

if.then16:                                        ; preds = %if.end14
  %17 = load ptr, ptr %buf.addr, align 8
  %_tmpBuf17 = getelementptr inbounds %"class.Imf_3_2::RgbaInputFile::FromYca", ptr %this1, i32 0, i32 14
  %18 = load ptr, ptr %_tmpBuf17, align 8
  %add.ptr = getelementptr inbounds %"struct.Imf_3_2::Rgba", ptr %18, i64 13
  %_width18 = getelementptr inbounds %"class.Imf_3_2::RgbaInputFile::FromYca", ptr %this1, i32 0, i32 6
  %19 = load i32, ptr %_width18, align 8
  %conv = sext i32 %19 to i64
  %mul = mul i64 %conv, 8
  call void @llvm.memcpy.p0.p0.i64(ptr align 2 %17, ptr align 2 %add.ptr, i64 %mul, i1 false)
  br label %if.end22

if.else19:                                        ; preds = %if.end14
  call void @_ZN7Imf_3_213RgbaInputFile7FromYca9padTmpBufEv(ptr noundef nonnull align 8 dereferenceable(392) %this1)
  %_width20 = getelementptr inbounds %"class.Imf_3_2::RgbaInputFile::FromYca", ptr %this1, i32 0, i32 6
  %20 = load i32, ptr %_width20, align 8
  %_tmpBuf21 = getelementptr inbounds %"class.Imf_3_2::RgbaInputFile::FromYca", ptr %this1, i32 0, i32 14
  %21 = load ptr, ptr %_tmpBuf21, align 8
  %22 = load ptr, ptr %buf.addr, align 8
  call void @_ZN7Imf_3_27RgbaYca22reconstructChromaHorizEiPKNS_4RgbaEPS1_(i32 noundef %20, ptr noundef %21, ptr noundef %22)
  br label %if.end22

if.end22:                                         ; preds = %if.else19, %if.then16
  ret void
}