; Function Attrs: mustprogress uwtable
define hidden void @_ZN7Imf_3_213RgbaInputFile7FromYca15readYCAScanLineEiPNS_4RgbaE(ptr nocapture noundef nonnull readonly align 8 dereferenceable(392) %this, i32 noundef %y, ptr noundef %buf) local_unnamed_addr #3 align 2 personality ptr @__gxx_personality_v0 {
entry:
  %_yMin = getelementptr inbounds i8, ptr %this, i64 56
  %0 = load i32, ptr %_yMin, align 8
  %cmp = icmp sgt i32 %0, %y
  %_yMax = getelementptr inbounds i8, ptr %this, i64 60
  %1 = load i32, ptr %_yMax, align 4
  %cmp3 = icmp slt i32 %1, %y
  %sub = add nsw i32 %1, -1
  %spec.select = select i1 %cmp3, i32 %sub, i32 %y
  %y.addr.0 = select i1 %cmp, i32 %0, i32 %spec.select
  %_inputPart = getelementptr inbounds i8, ptr %this, i64 40
  %2 = load ptr, ptr %_inputPart, align 8
  tail call void @_ZN7Imf_3_29InputPart10readPixelsEi(ptr noundef nonnull align 8 dereferenceable(8) %2, i32 noundef %y.addr.0)
  %_readC = getelementptr inbounds i8, ptr %this, i64 48
  %3 = load i8, ptr %_readC, align 8
  %4 = and i8 %3, 1
  %tobool.not = icmp eq i8 %4, 0
  br i1 %tobool.not, label %for.cond.preheader, label %if.end14

for.cond.preheader:                               ; preds = %entry
  %_width = getelementptr inbounds i8, ptr %this, i64 64
  %5 = load i32, ptr %_width, align 8
  %cmp89 = icmp sgt i32 %5, 0
  br i1 %cmp89, label %for.body.lr.ph, label %if.end14

for.body.lr.ph:                                   ; preds = %for.cond.preheader
  %_tmpBuf = getelementptr inbounds i8, ptr %this, i64 360
  br label %for.body

for.body:                                         ; preds = %for.body.lr.ph, %for.body
  %indvars.iv = phi i64 [ 0, %for.body.lr.ph ], [ %indvars.iv.next, %for.body ]
  %6 = load ptr, ptr %_tmpBuf, align 8
  %7 = add nuw nsw i64 %indvars.iv, 13
  %arrayidx = getelementptr inbounds %"struct.Imf_3_2::Rgba", ptr %6, i64 %7
  store i16 0, ptr %arrayidx, align 2
  %8 = load ptr, ptr %_tmpBuf, align 8
  %b = getelementptr inbounds %"struct.Imf_3_2::Rgba", ptr %8, i64 %7, i32 2
  store i16 0, ptr %b, align 2
  %indvars.iv.next = add nuw nsw i64 %indvars.iv, 1
  %9 = load i32, ptr %_width, align 8
  %10 = sext i32 %9 to i64
  %cmp8 = icmp slt i64 %indvars.iv.next, %10
  br i1 %cmp8, label %for.body, label %if.end14, !llvm.loop !27

if.end14:                                         ; preds = %for.body, %for.cond.preheader, %entry
  %and = and i32 %y.addr.0, 1
  %tobool15.not = icmp eq i32 %and, 0
  %_tmpBuf.i = getelementptr inbounds i8, ptr %this, i64 360
  br i1 %tobool15.not, label %if.else19, label %if.then16

if.then16:                                        ; preds = %if.end14
  %11 = load ptr, ptr %_tmpBuf.i, align 8
  %add.ptr = getelementptr inbounds i8, ptr %11, i64 104
  %_width18 = getelementptr inbounds i8, ptr %this, i64 64
  %12 = load i32, ptr %_width18, align 8
  %conv = sext i32 %12 to i64
  %mul = shl nsw i64 %conv, 3
  tail call void @llvm.memcpy.p0.p0.i64(ptr align 2 %buf, ptr nonnull align 2 %add.ptr, i64 %mul, i1 false)
  br label %if.end22

if.else19:                                        ; preds = %if.end14
  %_width.i = getelementptr inbounds i8, ptr %this, i64 64
  br label %for.body.i

for.body.i:                                       ; preds = %for.body.i, %if.else19
  %indvars.iv.i = phi i64 [ 0, %if.else19 ], [ %indvars.iv.next.i, %for.body.i ]
  %13 = load ptr, ptr %_tmpBuf.i, align 8
  %arrayidx.i = getelementptr inbounds i8, ptr %13, i64 104
  %arrayidx3.i = getelementptr inbounds %"struct.Imf_3_2::Rgba", ptr %13, i64 %indvars.iv.i
  %14 = load i64, ptr %arrayidx.i, align 2
  store i64 %14, ptr %arrayidx3.i, align 2
  %15 = load ptr, ptr %_tmpBuf.i, align 8
  %16 = load i32, ptr %_width.i, align 8
  %17 = sext i32 %16 to i64
  %18 = getelementptr %"struct.Imf_3_2::Rgba", ptr %15, i64 %17
  %arrayidx6.i = getelementptr i8, ptr %18, i64 88
  %19 = trunc i64 %indvars.iv.i to i32
  %20 = add i32 %19, 13
  %add10.i = add i32 %20, %16
  %idxprom11.i = sext i32 %add10.i to i64
  %arrayidx12.i = getelementptr inbounds %"struct.Imf_3_2::Rgba", ptr %15, i64 %idxprom11.i
  %21 = load i64, ptr %arrayidx6.i, align 2
  store i64 %21, ptr %arrayidx12.i, align 2
  %indvars.iv.next.i = add nuw nsw i64 %indvars.iv.i, 1
  %exitcond.not.i = icmp eq i64 %indvars.iv.next.i, 13
  br i1 %exitcond.not.i, label %_ZN7Imf_3_213RgbaInputFile7FromYca9padTmpBufEv.exit, label %for.body.i, !llvm.loop !28

_ZN7Imf_3_213RgbaInputFile7FromYca9padTmpBufEv.exit: ; preds = %for.body.i
  %22 = load i32, ptr %_width.i, align 8
  %23 = load ptr, ptr %_tmpBuf.i, align 8
  tail call void @_ZN7Imf_3_27RgbaYca22reconstructChromaHorizEiPKNS_4RgbaEPS1_(i32 noundef %22, ptr noundef %23, ptr noundef %buf)
  br label %if.end22

if.end22:                                         ; preds = %_ZN7Imf_3_213RgbaInputFile7FromYca9padTmpBufEv.exit, %if.then16
  ret void
}